; Function Attrs: mustprogress nounwind uwtable
define hidden void @_ZNK14G1GCPhaseTimes11debug_phaseEP15WorkerDataArrayIdEj(ptr nocapture noundef nonnull readnone align 8 dereferenceable(872) %0, ptr noundef %1, i32 noundef %2) local_unnamed_addr #0 align 2 {
  %4 = alloca %class.LogStream, align 8
  %5 = load volatile ptr, ptr getelementptr inbounds (i8, ptr @_ZN16LogTagSetMappingILN6LogTag4typeE49ELS1_114ELS1_0ELS1_0ELS1_0ELS1_0EE7_tagsetE, i64 56), align 8
  %.not = icmp eq ptr %5, null
  br i1 %.not, label %10, label %6

6:                                                ; preds = %3
  call void @_ZN12outputStreamC2Eb(ptr noundef nonnull align 8 dereferenceable(56) %4, i1 noundef zeroext false) #18
  store ptr getelementptr inbounds inrange(-16, 40) (i8, ptr @_ZTV17LogStreamImplBase, i64 16), ptr %4, align 8
  %7 = getelementptr inbounds i8, ptr %4, i64 56
  call void @_ZN17LogStreamImplBase10LineBufferC1Ev(ptr noundef nonnull align 8 dereferenceable(88) %7) #18
  %8 = getelementptr inbounds i8, ptr %4, i64 144
  store i32 2, ptr %8, align 8
  %.sroa.21.0..sroa_idx.i.i = getelementptr inbounds i8, ptr %4, i64 152
  store ptr @_ZN16LogTagSetMappingILN6LogTag4typeE49ELS1_114ELS1_0ELS1_0ELS1_0ELS1_0EE7_tagsetE, ptr %.sroa.21.0..sroa_idx.i.i, align 8
  store ptr getelementptr inbounds inrange(-16, 40) (i8, ptr @_ZTV9LogStream, i64 16), ptr %4, align 8
  %9 = add i32 %2, 2
  call void @_ZNK14G1GCPhaseTimes9log_phaseEP15WorkerDataArrayIdEjP12outputStreamb(ptr nonnull align 8 poison, ptr noundef %1, i32 noundef %9, ptr noundef nonnull %4, i1 noundef zeroext true)
  call void @_ZN13LogStreamImplI15LogTargetHandleED2Ev(ptr noundef nonnull align 8 dereferenceable(160) %4) #18
  br label %10

10:                                               ; preds = %6, %3
  ret void
}